target datalayout = "e-m:e-p270:32:32-p271:32:32-p272:64:64-i64:64-i128:128-f80:128-n8:16:32:64-S128"
target triple = "x86_64-pc-linux-gnu"

@H5_dont_atexit_g = internal global i8 0, align 1

; Function Attrs: nounwind uwtable
define i32 @H5dont_atexit() #0 {
  %1 = alloca i32, align 4
  store i32 0, ptr %1, align 4
  %2 = load i8, ptr @H5_dont_atexit_g, align 1
  %3 = trunc i8 %2 to i1
  br i1 %3, label %4, label %5

4:                                                ; preds = %0
  store i32 -1, ptr %1, align 4
  br label %6

5:                                                ; preds = %0
  store i8 1, ptr @H5_dont_atexit_g, align 1
  br label %6

6:                                                ; preds = %5, %4
  %7 = load i32, ptr %1, align 4
  ret i32 %7
}