; Function Attrs: mustprogress nofree norecurse nosync nounwind willreturn memory(readwrite, argmem: none, inaccessiblemem: none) uwtable
define range(i32 -1, 1) i32 @H5dont_atexit() local_unnamed_addr #8 {
  %.b1 = load i1, ptr @H5_dont_atexit_g, align 1
  br i1 %.b1, label %2, label %1

1:                                                ; preds = %0
  store i1 true, ptr @H5_dont_atexit_g, align 1
  br label %2

2:                                                ; preds = %0, %1
  %.0 = phi i32 [ 0, %1 ], [ -1, %0 ]
  ret i32 %.0
}